target datalayout = "e-m:e-p270:32:32-p271:32:32-p272:64:64-i64:64-i128:128-f80:128-n8:16:32:64-S128"
target triple = "x86_64-pc-linux-gnu"

%struct.AVFilterContext = type { ptr, ptr, ptr, ptr, ptr, i32, ptr, ptr, i32, ptr, ptr, i32, i32, ptr, ptr, ptr, ptr, i32, ptr, i32, i32 }
%struct.VAAPIVPPContext = type { ptr, ptr, ptr, i32, i32, i32, ptr, ptr, %struct._VARectangle, i32, i32, i32, [10 x i32], i32, i32, ptr, ptr }
%struct._VARectangle = type { i16, i16, i16, i16 }
%struct.AVVAAPIDeviceContext = type { ptr, i32 }

; Function Attrs: nounwind uwtable
define void @ff_vaapi_vpp_pipeline_uninit(ptr noundef %0) #0 {
  %2 = alloca ptr, align 8
  %3 = alloca ptr, align 8
  %4 = alloca i32, align 4
  store ptr %0, ptr %2, align 8, !tbaa !4
  call void @llvm.lifetime.start.p0(i64 8, ptr %3) #7
  %5 = load ptr, ptr %2, align 8, !tbaa !4
  %6 = getelementptr inbounds nuw %struct.AVFilterContext, ptr %5, i32 0, i32 9
  %7 = load ptr, ptr %6, align 8, !tbaa !14
  store ptr %7, ptr %3, align 8, !tbaa !25
  call void @llvm.lifetime.start.p0(i64 4, ptr %4) #7
  store i32 0, ptr %4, align 4, !tbaa !12
  br label %8

8:                                                ; preds = %41, %1
  %9 = load i32, ptr %4, align 4, !tbaa !12
  %10 = load ptr, ptr %3, align 8, !tbaa !25
  %11 = getelementptr inbounds nuw %struct.VAAPIVPPContext, ptr %10, i32 0, i32 13
  %12 = load i32, ptr %11, align 4, !tbaa !27
  %13 = icmp slt i32 %9, %12
  br i1 %13, label %14, label %44

14:                                               ; preds = %8
  %15 = load ptr, ptr %3, align 8, !tbaa !25
  %16 = getelementptr inbounds nuw %struct.VAAPIVPPContext, ptr %15, i32 0, i32 12
  %17 = load i32, ptr %4, align 4, !tbaa !12
  %18 = sext i32 %17 to i64
  %19 = getelementptr inbounds [10 x i32], ptr %16, i64 0, i64 %18
  %20 = load i32, ptr %19, align 4, !tbaa !12
  %21 = icmp ne i32 %20, -1
  br i1 %21, label %22, label %40

22:                                               ; preds = %14
  %23 = load ptr, ptr %3, align 8, !tbaa !25
  %24 = getelementptr inbounds nuw %struct.VAAPIVPPContext, ptr %23, i32 0, i32 1
  %25 = load ptr, ptr %24, align 8, !tbaa !33
  %26 = getelementptr inbounds nuw %struct.AVVAAPIDeviceContext, ptr %25, i32 0, i32 0
  %27 = load ptr, ptr %26, align 8, !tbaa !34
  %28 = load ptr, ptr %3, align 8, !tbaa !25
  %29 = getelementptr inbounds nuw %struct.VAAPIVPPContext, ptr %28, i32 0, i32 12
  %30 = load i32, ptr %4, align 4, !tbaa !12
  %31 = sext i32 %30 to i64
  %32 = getelementptr inbounds [10 x i32], ptr %29, i64 0, i64 %31
  %33 = load i32, ptr %32, align 4, !tbaa !12
  %34 = call i32 @vaDestroyBuffer(ptr noundef %27, i32 noundef %33)
  %35 = load ptr, ptr %3, align 8, !tbaa !25
  %36 = getelementptr inbounds nuw %struct.VAAPIVPPContext, ptr %35, i32 0, i32 12
  %37 = load i32, ptr %4, align 4, !tbaa !12
  %38 = sext i32 %37 to i64
  %39 = getelementptr inbounds [10 x i32], ptr %36, i64 0, i64 %38
  store i32 -1, ptr %39, align 4, !tbaa !12
  br label %40

40:                                               ; preds = %22, %14
  br label %41

41:                                               ; preds = %40
  %42 = load i32, ptr %4, align 4, !tbaa !12
  %43 = add nsw i32 %42, 1
  store i32 %43, ptr %4, align 4, !tbaa !12
  br label %8, !llvm.loop !36

44:                                               ; preds = %8
  %45 = load ptr, ptr %3, align 8, !tbaa !25
  %46 = getelementptr inbounds nuw %struct.VAAPIVPPContext, ptr %45, i32 0, i32 13
  store i32 0, ptr %46, align 4, !tbaa !27
  %47 = load ptr, ptr %3, align 8, !tbaa !25
  %48 = getelementptr inbounds nuw %struct.VAAPIVPPContext, ptr %47, i32 0, i32 5
  %49 = load i32, ptr %48, align 8, !tbaa !38
  %50 = icmp ne i32 %49, -1
  br i1 %50, label %51, label %63

51:                                               ; preds = %44
  %52 = load ptr, ptr %3, align 8, !tbaa !25
  %53 = getelementptr inbounds nuw %struct.VAAPIVPPContext, ptr %52, i32 0, i32 1
  %54 = load ptr, ptr %53, align 8, !tbaa !33
  %55 = getelementptr inbounds nuw %struct.AVVAAPIDeviceContext, ptr %54, i32 0, i32 0
  %56 = load ptr, ptr %55, align 8, !tbaa !34
  %57 = load ptr, ptr %3, align 8, !tbaa !25
  %58 = getelementptr inbounds nuw %struct.VAAPIVPPContext, ptr %57, i32 0, i32 5
  %59 = load i32, ptr %58, align 8, !tbaa !38
  %60 = call i32 @vaDestroyContext(ptr noundef %56, i32 noundef %59)
  %61 = load ptr, ptr %3, align 8, !tbaa !25
  %62 = getelementptr inbounds nuw %struct.VAAPIVPPContext, ptr %61, i32 0, i32 5
  store i32 -1, ptr %62, align 8, !tbaa !38
  br label %63

63:                                               ; preds = %51, %44
  %64 = load ptr, ptr %3, align 8, !tbaa !25
  %65 = getelementptr inbounds nuw %struct.VAAPIVPPContext, ptr %64, i32 0, i32 4
  %66 = load i32, ptr %65, align 4, !tbaa !39
  %67 = icmp ne i32 %66, -1
  br i1 %67, label %68, label %80

68:                                               ; preds = %63
  %69 = load ptr, ptr %3, align 8, !tbaa !25
  %70 = getelementptr inbounds nuw %struct.VAAPIVPPContext, ptr %69, i32 0, i32 1
  %71 = load ptr, ptr %70, align 8, !tbaa !33
  %72 = getelementptr inbounds nuw %struct.AVVAAPIDeviceContext, ptr %71, i32 0, i32 0
  %73 = load ptr, ptr %72, align 8, !tbaa !34
  %74 = load ptr, ptr %3, align 8, !tbaa !25
  %75 = getelementptr inbounds nuw %struct.VAAPIVPPContext, ptr %74, i32 0, i32 4
  %76 = load i32, ptr %75, align 4, !tbaa !39
  %77 = call i32 @vaDestroyConfig(ptr noundef %73, i32 noundef %76)
  %78 = load ptr, ptr %3, align 8, !tbaa !25
  %79 = getelementptr inbounds nuw %struct.VAAPIVPPContext, ptr %78, i32 0, i32 4
  store i32 -1, ptr %79, align 4, !tbaa !39
  br label %80

80:                                               ; preds = %68, %63
  %81 = load ptr, ptr %3, align 8, !tbaa !25
  %82 = getelementptr inbounds nuw %struct.VAAPIVPPContext, ptr %81, i32 0, i32 2
  call void @av_buffer_unref(ptr noundef %82)
  %83 = load ptr, ptr %3, align 8, !tbaa !25
  %84 = getelementptr inbounds nuw %struct.VAAPIVPPContext, ptr %83, i32 0, i32 1
  store ptr null, ptr %84, align 8, !tbaa !33
  call void @llvm.lifetime.end.p0(i64 4, ptr %4) #7
  call void @llvm.lifetime.end.p0(i64 8, ptr %3) #7
  ret void
}