; Function Attrs: nounwind uwtable
define void @ff_vaapi_vpp_pipeline_uninit(ptr noundef readonly captures(none) %0) local_unnamed_addr #0 {
  %2 = getelementptr inbounds nuw i8, ptr %0, i64 72
  %3 = load ptr, ptr %2, align 8, !tbaa !4
  %4 = getelementptr inbounds nuw i8, ptr %3, i64 116
  %5 = load i32, ptr %4, align 4, !tbaa !20
  %6 = icmp sgt i32 %5, 0
  br i1 %6, label %.lr.ph, label %._crit_edge

.lr.ph:                                           ; preds = %1
  %7 = getelementptr inbounds nuw i8, ptr %3, i64 76
  %8 = getelementptr inbounds nuw i8, ptr %3, i64 8
  br label %9

9:                                                ; preds = %.lr.ph, %17
  %10 = phi i32 [ %5, %.lr.ph ], [ %18, %17 ]
  %indvars.iv = phi i64 [ 0, %.lr.ph ], [ %indvars.iv.next, %17 ]
  %11 = getelementptr inbounds nuw [10 x i32], ptr %7, i64 0, i64 %indvars.iv
  %12 = load i32, ptr %11, align 4, !tbaa !26
  %.not25 = icmp eq i32 %12, -1
  br i1 %.not25, label %17, label %13

13:                                               ; preds = %9
  %14 = load ptr, ptr %8, align 8, !tbaa !27
  %15 = load ptr, ptr %14, align 8, !tbaa !28
  %16 = tail call i32 @vaDestroyBuffer(ptr noundef %15, i32 noundef %12) #7
  store i32 -1, ptr %11, align 4, !tbaa !26
  %.pre = load i32, ptr %4, align 4, !tbaa !20
  br label %17

17:                                               ; preds = %9, %13
  %18 = phi i32 [ %10, %9 ], [ %.pre, %13 ]
  %indvars.iv.next = add nuw nsw i64 %indvars.iv, 1
  %19 = sext i32 %18 to i64
  %20 = icmp slt i64 %indvars.iv.next, %19
  br i1 %20, label %9, label %._crit_edge, !llvm.loop !30

._crit_edge:                                      ; preds = %17, %1
  store i32 0, ptr %4, align 4, !tbaa !20
  %21 = getelementptr inbounds nuw i8, ptr %3, i64 32
  %22 = load i32, ptr %21, align 8, !tbaa !32
  %.not = icmp eq i32 %22, -1
  br i1 %.not, label %28, label %23

23:                                               ; preds = %._crit_edge
  %24 = getelementptr inbounds nuw i8, ptr %3, i64 8
  %25 = load ptr, ptr %24, align 8, !tbaa !27
  %26 = load ptr, ptr %25, align 8, !tbaa !28
  %27 = tail call i32 @vaDestroyContext(ptr noundef %26, i32 noundef %22) #7
  store i32 -1, ptr %21, align 8, !tbaa !32
  br label %28

28:                                               ; preds = %23, %._crit_edge
  %29 = getelementptr inbounds nuw i8, ptr %3, i64 28
  %30 = load i32, ptr %29, align 4, !tbaa !33
  %.not24 = icmp eq i32 %30, -1
  br i1 %.not24, label %36, label %31

31:                                               ; preds = %28
  %32 = getelementptr inbounds nuw i8, ptr %3, i64 8
  %33 = load ptr, ptr %32, align 8, !tbaa !27
  %34 = load ptr, ptr %33, align 8, !tbaa !28
  %35 = tail call i32 @vaDestroyConfig(ptr noundef %34, i32 noundef %30) #7
  store i32 -1, ptr %29, align 4, !tbaa !33
  br label %36

36:                                               ; preds = %31, %28
  %37 = getelementptr inbounds nuw i8, ptr %3, i64 16
  tail call void @av_buffer_unref(ptr noundef nonnull %37) #7
  %38 = getelementptr inbounds nuw i8, ptr %3, i64 8
  store ptr null, ptr %38, align 8, !tbaa !27
  ret void
}